; Function Attrs: nounwind sspstrong uwtable
define internal fastcc i64 @enumerator_block_call(i64 noundef %0, ptr noundef %1, i64 noundef %2) unnamed_addr #0 {
  %4 = alloca i64, align 8
  %5 = alloca ptr, align 8
  %6 = tail call ptr @rb_check_typeddata(i64 noundef %0, ptr noundef nonnull @enumerator_data_type) #18
  %.not.i = icmp eq ptr %6, null
  br i1 %.not.i, label %10, label %7

7:                                                ; preds = %3
  %8 = load i64, ptr %6, align 8, !tbaa !17
  %9 = icmp eq i64 %8, 36
  br i1 %9, label %10, label %enumerator_ptr.exit

10:                                               ; preds = %7, %3
  %11 = load i64, ptr @rb_eArgError, align 8, !tbaa !7
  tail call void (i64, ptr, ...) @rb_raise(i64 noundef %11, ptr noundef nonnull @.str.103) #19
  unreachable

enumerator_ptr.exit:                              ; preds = %7
  %12 = getelementptr inbounds nuw i8, ptr %6, i64 8
  %13 = load i64, ptr %12, align 8, !tbaa !24
  call void @llvm.lifetime.start.p0(i64 8, ptr nonnull %4) #18
  %14 = getelementptr inbounds nuw i8, ptr %6, i64 16
  %15 = load i64, ptr %14, align 8, !tbaa !42
  store i64 %15, ptr %4, align 8, !tbaa !7
  %.not = icmp eq i64 %15, 0
  br i1 %.not, label %rb_array_const_ptr.exit, label %16

16:                                               ; preds = %enumerator_ptr.exit
  %17 = inttoptr i64 %15 to ptr
  %18 = load i64, ptr %17, align 8, !tbaa !21
  %19 = and i64 %18, 8192
  %.not.i.i = icmp eq i64 %19, 0
  br i1 %.not.i.i, label %rb_array_len.exit.i, label %rb_array_len.exit.i.thread

rb_array_len.exit.i:                              ; preds = %16
  %20 = getelementptr inbounds nuw i8, ptr %17, i64 16
  %21 = load i64, ptr %20, align 8, !tbaa !44
  %22 = add i64 %21, 2147483648
  %.not.i1.i = icmp ult i64 %22, 4294967296
  br i1 %.not.i1.i, label %28, label %27

rb_array_len.exit.i.thread:                       ; preds = %16
  %23 = trunc i64 %18 to i32
  %24 = lshr i32 %23, 15
  %25 = and i32 %24, 127
  %26 = getelementptr inbounds nuw i8, ptr %17, i64 16
  br label %rb_array_const_ptr.exit

27:                                               ; preds = %rb_array_len.exit.i
  tail call void @rb_out_of_int(i64 noundef %21) #20
  unreachable

28:                                               ; preds = %rb_array_len.exit.i
  %29 = trunc i64 %21 to i32
  %30 = getelementptr inbounds nuw i8, ptr %17, i64 32
  %31 = load ptr, ptr %30, align 8, !tbaa !44
  br label %rb_array_const_ptr.exit

rb_array_const_ptr.exit:                          ; preds = %28, %rb_array_len.exit.i.thread, %enumerator_ptr.exit
  %.011 = phi ptr [ null, %enumerator_ptr.exit ], [ %26, %rb_array_len.exit.i.thread ], [ %31, %28 ]
  %.0 = phi i32 [ 0, %enumerator_ptr.exit ], [ %25, %rb_array_len.exit.i.thread ], [ %29, %28 ]
  %32 = getelementptr inbounds nuw i8, ptr %6, i64 88
  %33 = load i32, ptr %32, align 8, !tbaa !31
  %34 = tail call i64 @rb_block_call_kw(i64 noundef %8, i64 noundef %13, i32 noundef %.0, ptr noundef %.011, ptr noundef %1, i64 noundef %2, i32 noundef %33) #18
  call void @llvm.lifetime.start.p0(i64 8, ptr nonnull %5) #18
  store ptr %4, ptr %5, align 8, !tbaa !91
  call void asm sideeffect "", "*m,~{dirflag},~{fpsr},~{flags}"(ptr nonnull elementtype(ptr) %5) #18, !srcloc !92
  %35 = load ptr, ptr %5, align 8, !tbaa !91
  call void @llvm.lifetime.end.p0(i64 8, ptr nonnull %5) #18
  %36 = load volatile i64, ptr %35, align 8, !tbaa !7
  call void @llvm.lifetime.end.p0(i64 8, ptr nonnull %4) #18
  ret i64 %34
}